; Function Attrs: nounwind sspstrong uwtable
define dso_local i64 @rb_int2big(i64 noundef %0) local_unnamed_addr #0 {
  %2 = alloca [6 x i64], align 16
  %3 = alloca i64, align 8
  %4 = icmp sgt i64 %0, -1
  %.07 = tail call i64 @llvm.abs.i64(i64 %0, i1 false)
  %5 = load i64, ptr @rb_cInteger, align 8, !tbaa !7
  %6 = tail call align 8 ptr @llvm.threadlocal.address.p0(ptr align 8 @ruby_current_ec)
  %7 = load ptr, ptr %6, align 8, !tbaa !14
  %8 = tail call i64 @rb_wb_protected_newobj_of(ptr noundef %7, i64 noundef %5, i64 noundef 10, i64 noundef 40) #27
  %9 = inttoptr i64 %8 to ptr
  %10 = load i64, ptr %9, align 8, !tbaa !11
  %.sink.i.i.i = and i64 %10, -253953
  %11 = or disjoint i64 %.sink.i.i.i, 90112
  store i64 %11, ptr %9, align 8, !tbaa !11
  call void @llvm.lifetime.start.p0(i64 48, ptr nonnull %2) #27
  call void @llvm.lifetime.start.p0(i64 8, ptr nonnull %3)
  store volatile i64 1296236545, ptr %2, align 16, !tbaa !7
  %12 = getelementptr inbounds nuw i8, ptr %9, i64 16
  %13 = ptrtoint ptr %12 to i64
  %14 = getelementptr inbounds nuw i8, ptr %2, i64 8
  store volatile i64 %13, ptr %14, align 8, !tbaa !7
  %15 = getelementptr inbounds nuw i8, ptr %2, i64 16
  store volatile i64 24, ptr %15, align 16, !tbaa !7
  %16 = getelementptr inbounds nuw i8, ptr %2, i64 24
  store volatile i64 0, ptr %16, align 8, !tbaa !7
  %17 = getelementptr inbounds nuw i8, ptr %2, i64 32
  store volatile i64 0, ptr %17, align 16, !tbaa !7
  %18 = getelementptr inbounds nuw i8, ptr %2, i64 40
  store volatile i64 0, ptr %18, align 8, !tbaa !7
  %19 = call i64 asm sideeffect "rolq $$3,  %rdi ; rolq $$13, %rdi\0A\09rolq $$61, %rdi ; rolq $$51, %rdi\0A\09xchgq %rbx,%rbx", "={dx},{ax},0,~{cc},~{memory},~{dirflag},~{fpsr},~{flags}"(ptr nonnull %2, i64 0) #27, !srcloc !17
  store volatile i64 %19, ptr %3, align 8, !tbaa !7
  %.0..0..0..0..0..0..0..0..i.i = load volatile i64, ptr %3, align 8, !tbaa !7
  call void @llvm.lifetime.end.p0(i64 8, ptr nonnull %3)
  call void @llvm.lifetime.end.p0(i64 48, ptr nonnull %2) #27
  call void @rb_obj_freeze_inline(i64 noundef %8) #27
  %20 = load i64, ptr %9, align 8, !tbaa !11
  %21 = and i64 %20, 16384
  %.not.i.i = icmp eq i64 %21, 0
  br i1 %.not.i.i, label %22, label %BIGNUM_DIGITS.exit.i

22:                                               ; preds = %1
  %23 = getelementptr inbounds nuw i8, ptr %9, i64 24
  %24 = load ptr, ptr %23, align 8, !tbaa !13
  br label %BIGNUM_DIGITS.exit.i

BIGNUM_DIGITS.exit.i:                             ; preds = %22, %1
  %.0.i.i = phi ptr [ %24, %22 ], [ %12, %1 ]
  br label %27

.preheader.i:                                     ; preds = %27
  %25 = getelementptr i8, ptr %.0.i.i, i64 4
  %26 = load i32, ptr %25, align 4, !tbaa !18
  %.not18.i = icmp eq i32 %26, 0
  %.us-phi.i = select i1 %.not18.i, i64 1, i64 2
  br i1 %.not.i.i, label %36, label %32

27:                                               ; preds = %27, %BIGNUM_DIGITS.exit.i
  %.021.i = phi i64 [ %.07, %BIGNUM_DIGITS.exit.i ], [ %31, %27 ]
  %28 = phi i1 [ true, %BIGNUM_DIGITS.exit.i ], [ false, %27 ]
  %.01620.i = phi i64 [ 0, %BIGNUM_DIGITS.exit.i ], [ 1, %27 ]
  %29 = trunc i64 %.021.i to i32
  %30 = getelementptr i32, ptr %.0.i.i, i64 %.01620.i
  store i32 %29, ptr %30, align 4, !tbaa !18
  %31 = lshr i64 %.021.i, 32
  br i1 %28, label %27, label %.preheader.i, !llvm.loop !75

32:                                               ; preds = %.preheader.i
  %33 = and i64 %20, -229377
  %34 = shl nuw nsw i64 %.us-phi.i, 15
  %35 = or disjoint i64 %34, %33
  store i64 %35, ptr %9, align 8, !tbaa !11
  br label %rb_uint2big.exit

36:                                               ; preds = %.preheader.i
  store i64 %.us-phi.i, ptr %12, align 8, !tbaa !13
  br label %rb_uint2big.exit

rb_uint2big.exit:                                 ; preds = %32, %36
  %37 = phi i64 [ %35, %32 ], [ %20, %36 ]
  br i1 %4, label %40, label %38

38:                                               ; preds = %rb_uint2big.exit
  %39 = and i64 %37, -8193
  store i64 %39, ptr %9, align 8, !tbaa !11
  br label %40

40:                                               ; preds = %38, %rb_uint2big.exit
  ret i64 %8
}